target datalayout = "e-m:e-p270:32:32-p271:32:32-p272:64:64-i64:64-i128:128-f80:128-n8:16:32:64-S128"
target triple = "x86_64-pc-linux-gnu"

%struct.ident_t = type { i32, i32, i32, i32, ptr }
%"class.ncnn::Scale" = type { %"class.ncnn::Layer", i32, i32, %"class.ncnn::Mat", %"class.ncnn::Mat" }
%"class.ncnn::Layer" = type { ptr, i8, i8, i8, i8, i8, i8, i8, i8, i8, i8, i8, i8, i8, i8, i8, i8, i8, i8, i8, i8, i32, ptr, i32, %"class.std::__cxx11::basic_string", %"class.std::__cxx11::basic_string", %"class.std::vector", %"class.std::vector", %"class.std::vector.3", %"class.std::vector.3" }
%"class.std::__cxx11::basic_string" = type { %"struct.std::__cxx11::basic_string<char>::_Alloc_hider", i64, %union.anon }
%"struct.std::__cxx11::basic_string<char>::_Alloc_hider" = type { ptr }
%union.anon = type { i64, [8 x i8] }
%"class.std::vector" = type { %"struct.std::_Vector_base" }
%"struct.std::_Vector_base" = type { %"struct.std::_Vector_base<int, std::allocator<int>>::_Vector_impl" }
%"struct.std::_Vector_base<int, std::allocator<int>>::_Vector_impl" = type { %"struct.std::_Vector_base<int, std::allocator<int>>::_Vector_impl_data" }
%"struct.std::_Vector_base<int, std::allocator<int>>::_Vector_impl_data" = type { ptr, ptr, ptr }
%"class.std::vector.3" = type { %"struct.std::_Vector_base.4" }
%"struct.std::_Vector_base.4" = type { %"struct.std::_Vector_base<ncnn::Mat, std::allocator<ncnn::Mat>>::_Vector_impl" }
%"struct.std::_Vector_base<ncnn::Mat, std::allocator<ncnn::Mat>>::_Vector_impl" = type { %"struct.std::_Vector_base<ncnn::Mat, std::allocator<ncnn::Mat>>::_Vector_impl_data" }
%"struct.std::_Vector_base<ncnn::Mat, std::allocator<ncnn::Mat>>::_Vector_impl_data" = type { ptr, ptr, ptr }
%"class.ncnn::Mat" = type { ptr, ptr, i64, i32, ptr, i32, i32, i32, i32, i32, i64 }
%"class.ncnn::Option" = type { i8, i32, ptr, ptr, i32, i8, i8, i8, i8, i8, i8, i8, i8, i8, i8, i8, i8, i8, i8, i8, i8, i8, i8, i8, i8, i32, i8, i8, i8, i8, i8, i8, i8, i8, i8, i8, i8, i8 }

@2 = private unnamed_addr constant %struct.ident_t { i32 0, i32 2, i32 0, i32 22, ptr @0 }, align 8

; Function Attrs: alwaysinline mustprogress nounwind uwtable
define linkonce_odr hidden noundef ptr @_ZN4ncnn3MatcvPT_IfEEv(ptr noundef nonnull align 8 dereferenceable(72) %0) #5 comdat align 2 {
  %2 = alloca ptr, align 8
  store ptr %0, ptr %2, align 8, !tbaa !17
  %3 = load ptr, ptr %2, align 8
  %4 = getelementptr inbounds nuw %"class.ncnn::Mat", ptr %3, i32 0, i32 0
  %5 = load ptr, ptr %4, align 8, !tbaa !53
  ret ptr %5
}

; Function Attrs: alwaysinline mustprogress nounwind uwtable
define linkonce_odr hidden noundef ptr @_ZNK4ncnn3MatcvPKT_IfEEv(ptr noundef nonnull align 8 dereferenceable(72) %0) #5 comdat align 2 {
  %2 = alloca ptr, align 8
  store ptr %0, ptr %2, align 8, !tbaa !17
  %3 = load ptr, ptr %2, align 8
  %4 = getelementptr inbounds nuw %"class.ncnn::Mat", ptr %3, i32 0, i32 0
  %5 = load ptr, ptr %4, align 8, !tbaa !53
  ret ptr %5
}

; Function Attrs: mustprogress nounwind uwtable
define linkonce_odr hidden noundef nonnull align 8 dereferenceable(72) ptr @_ZNSt6vectorIN4ncnn3MatESaIS1_EEixEm(ptr noundef nonnull align 8 dereferenceable(24) %0, i64 noundef %1) #4 comdat align 2 {
  %3 = alloca ptr, align 8
  %4 = alloca i64, align 8
  store ptr %0, ptr %3, align 8, !tbaa !13
  store i64 %1, ptr %4, align 8, !tbaa !51
  %5 = load ptr, ptr %3, align 8
  %6 = getelementptr inbounds nuw %"struct.std::_Vector_base.4", ptr %5, i32 0, i32 0
  %7 = getelementptr inbounds nuw %"struct.std::_Vector_base<ncnn::Mat, std::allocator<ncnn::Mat>>::_Vector_impl_data", ptr %6, i32 0, i32 0
  %8 = load ptr, ptr %7, align 8, !tbaa !52
  %9 = load i64, ptr %4, align 8, !tbaa !51
  %10 = getelementptr inbounds nuw %"class.ncnn::Mat", ptr %8, i64 %9
  ret ptr %10
}

; Function Attrs: mustprogress uwtable
define hidden noundef i32 @_ZNK4ncnn9Scale_x8615forward_inplaceERSt6vectorINS_3MatESaIS2_EERKNS_6OptionE(ptr noundef nonnull align 8 dereferenceable(360) %0, ptr noundef nonnull align 8 dereferenceable(24) %1, ptr noundef nonnull align 8 dereferenceable(64) %2) unnamed_addr #2 align 2 {
  %4 = alloca ptr, align 8
  %5 = alloca ptr, align 8
  %6 = alloca ptr, align 8
  %7 = alloca ptr, align 8
  %8 = alloca ptr, align 8
  %9 = alloca i32, align 4
  %10 = alloca i32, align 4
  %11 = alloca i32, align 4
  %12 = alloca i32, align 4
  %13 = alloca i32, align 4
  %14 = alloca i32, align 4
  %15 = alloca ptr, align 8
  %16 = alloca ptr, align 8
  %17 = alloca ptr, align 8
  %18 = alloca i32, align 4
  %19 = alloca i32, align 4
  %20 = alloca i32, align 4
  %21 = alloca i32, align 4
  %22 = alloca i32, align 4
  %23 = alloca i32, align 4
  %24 = alloca i32, align 4
  %25 = call i32 @__kmpc_global_thread_num(ptr @2)
  store ptr %0, ptr %4, align 8, !tbaa !11
  store ptr %1, ptr %5, align 8, !tbaa !13
  store ptr %2, ptr %6, align 8, !tbaa !15
  %26 = load ptr, ptr %4, align 8
  call void @llvm.lifetime.start.p0(i64 8, ptr %7) #7
  %27 = load ptr, ptr %5, align 8, !tbaa !13
  %28 = call noundef nonnull align 8 dereferenceable(72) ptr @_ZNSt6vectorIN4ncnn3MatESaIS1_EEixEm(ptr noundef nonnull align 8 dereferenceable(24) %27, i64 noundef 0) #7
  store ptr %28, ptr %7, align 8, !tbaa !17
  call void @llvm.lifetime.start.p0(i64 8, ptr %8) #7
  %29 = load ptr, ptr %5, align 8, !tbaa !13
  %30 = call noundef nonnull align 8 dereferenceable(72) ptr @_ZNSt6vectorIN4ncnn3MatESaIS1_EEixEm(ptr noundef nonnull align 8 dereferenceable(24) %29, i64 noundef 1) #7
  store ptr %30, ptr %8, align 8, !tbaa !17
  call void @llvm.lifetime.start.p0(i64 4, ptr %9) #7
  %31 = load ptr, ptr %7, align 8, !tbaa !17
  %32 = getelementptr inbounds nuw %"class.ncnn::Mat", ptr %31, i32 0, i32 6
  %33 = load i32, ptr %32, align 4, !tbaa !19
  store i32 %33, ptr %9, align 4, !tbaa !25
  call void @llvm.lifetime.start.p0(i64 4, ptr %10) #7
  %34 = load ptr, ptr %7, align 8, !tbaa !17
  %35 = getelementptr inbounds nuw %"class.ncnn::Mat", ptr %34, i32 0, i32 7
  %36 = load i32, ptr %35, align 8, !tbaa !26
  store i32 %36, ptr %10, align 4, !tbaa !25
  call void @llvm.lifetime.start.p0(i64 4, ptr %11) #7
  %37 = load ptr, ptr %7, align 8, !tbaa !17
  %38 = getelementptr inbounds nuw %"class.ncnn::Mat", ptr %37, i32 0, i32 8
  %39 = load i32, ptr %38, align 4, !tbaa !27
  store i32 %39, ptr %11, align 4, !tbaa !25
  call void @llvm.lifetime.start.p0(i64 4, ptr %12) #7
  %40 = load ptr, ptr %7, align 8, !tbaa !17
  %41 = getelementptr inbounds nuw %"class.ncnn::Mat", ptr %40, i32 0, i32 9
  %42 = load i32, ptr %41, align 8, !tbaa !28
  store i32 %42, ptr %12, align 4, !tbaa !25
  call void @llvm.lifetime.start.p0(i64 4, ptr %13) #7
  %43 = load ptr, ptr %7, align 8, !tbaa !17
  %44 = getelementptr inbounds nuw %"class.ncnn::Mat", ptr %43, i32 0, i32 5
  %45 = load i32, ptr %44, align 8, !tbaa !29
  store i32 %45, ptr %13, align 4, !tbaa !25
  call void @llvm.lifetime.start.p0(i64 4, ptr %14) #7
  %46 = load ptr, ptr %7, align 8, !tbaa !17
  %47 = getelementptr inbounds nuw %"class.ncnn::Mat", ptr %46, i32 0, i32 3
  %48 = load i32, ptr %47, align 8, !tbaa !30
  store i32 %48, ptr %14, align 4, !tbaa !25
  call void @llvm.lifetime.start.p0(i64 8, ptr %15) #7
  %49 = load ptr, ptr %8, align 8, !tbaa !17
  %50 = call noundef ptr @_ZNK4ncnn3MatcvPKT_IfEEv(ptr noundef nonnull align 8 dereferenceable(72) %49)
  store ptr %50, ptr %15, align 8, !tbaa !31
  call void @llvm.lifetime.start.p0(i64 8, ptr %16) #7
  %51 = getelementptr inbounds nuw %"class.ncnn::Scale", ptr %26, i32 0, i32 4
  %52 = call noundef ptr @_ZNK4ncnn3MatcvPKT_IfEEv(ptr noundef nonnull align 8 dereferenceable(72) %51)
  store ptr %52, ptr %16, align 8, !tbaa !31
  %53 = load i32, ptr %13, align 4, !tbaa !25
  %54 = icmp eq i32 %53, 1
  br i1 %54, label %55, label %95

55:                                               ; preds = %3
  call void @llvm.lifetime.start.p0(i64 8, ptr %17) #7
  %56 = load ptr, ptr %7, align 8, !tbaa !17
  %57 = call noundef ptr @_ZN4ncnn3MatcvPT_IfEEv(ptr noundef nonnull align 8 dereferenceable(72) %56)
  store ptr %57, ptr %17, align 8, !tbaa !31
  call void @llvm.lifetime.start.p0(i64 4, ptr %18) #7
  %58 = load i32, ptr %9, align 4, !tbaa !25
  %59 = load i32, ptr %14, align 4, !tbaa !25
  %60 = mul nsw i32 %58, %59
  store i32 %60, ptr %18, align 4, !tbaa !25
  %61 = getelementptr inbounds nuw %"class.ncnn::Scale", ptr %26, i32 0, i32 2
  %62 = load i32, ptr %61, align 4, !tbaa !33
  %63 = icmp ne i32 %62, 0
  br i1 %63, label %64, label %79

64:                                               ; preds = %55
  call void @llvm.lifetime.start.p0(i64 4, ptr %19) #7
  store i32 0, ptr %19, align 4, !tbaa !25
  call void @llvm.lifetime.start.p0(i64 4, ptr %20) #7
  store i32 0, ptr %20, align 4, !tbaa !25
  %65 = load i32, ptr %18, align 4, !tbaa !25
  %66 = load i32, ptr %20, align 4, !tbaa !25
  %67 = sub nsw i32 %65, %66
  %68 = sdiv i32 %67, 4
  store i32 %68, ptr %19, align 4, !tbaa !25
  %69 = load ptr, ptr %6, align 8, !tbaa !15
  %70 = getelementptr inbounds nuw %"class.ncnn::Option", ptr %69, i32 0, i32 1
  %71 = load i32, ptr %70, align 4, !tbaa !48
  call void @__kmpc_push_num_threads(ptr @2, i32 %25, i32 %71)
  call void (ptr, i32, ptr, ...) @__kmpc_fork_call(ptr @2, i32 5, ptr @_ZNK4ncnn9Scale_x8615forward_inplaceERSt6vectorINS_3MatESaIS2_EERKNS_6OptionE.omp_outlined, ptr %19, ptr %20, ptr %17, ptr %15, ptr %16)
  %72 = load i32, ptr %19, align 4, !tbaa !25
  %73 = mul nsw i32 %72, 4
  %74 = load i32, ptr %20, align 4, !tbaa !25
  %75 = add nsw i32 %74, %73
  store i32 %75, ptr %20, align 4, !tbaa !25
  %76 = load ptr, ptr %6, align 8, !tbaa !15
  %77 = getelementptr inbounds nuw %"class.ncnn::Option", ptr %76, i32 0, i32 1
  %78 = load i32, ptr %77, align 4, !tbaa !48
  call void @__kmpc_push_num_threads(ptr @2, i32 %25, i32 %78)
  call void (ptr, i32, ptr, ...) @__kmpc_fork_call(ptr @2, i32 5, ptr @_ZNK4ncnn9Scale_x8615forward_inplaceERSt6vectorINS_3MatESaIS2_EERKNS_6OptionE.omp_outlined.1, ptr %18, ptr %20, ptr %17, ptr %15, ptr %16)
  call void @llvm.lifetime.end.p0(i64 4, ptr %20) #7
  call void @llvm.lifetime.end.p0(i64 4, ptr %19) #7
  br label %94

79:                                               ; preds = %55
  call void @llvm.lifetime.start.p0(i64 4, ptr %21) #7
  store i32 0, ptr %21, align 4, !tbaa !25
  call void @llvm.lifetime.start.p0(i64 4, ptr %22) #7
  store i32 0, ptr %22, align 4, !tbaa !25
  %80 = load i32, ptr %18, align 4, !tbaa !25
  %81 = load i32, ptr %22, align 4, !tbaa !25
  %82 = sub nsw i32 %80, %81
  %83 = sdiv i32 %82, 4
  store i32 %83, ptr %21, align 4, !tbaa !25
  %84 = load ptr, ptr %6, align 8, !tbaa !15
  %85 = getelementptr inbounds nuw %"class.ncnn::Option", ptr %84, i32 0, i32 1
  %86 = load i32, ptr %85, align 4, !tbaa !48
  call void @__kmpc_push_num_threads(ptr @2, i32 %25, i32 %86)
  call void (ptr, i32, ptr, ...) @__kmpc_fork_call(ptr @2, i32 4, ptr @_ZNK4ncnn9Scale_x8615forward_inplaceERSt6vectorINS_3MatESaIS2_EERKNS_6OptionE.omp_outlined.2, ptr %21, ptr %22, ptr %17, ptr %15)
  %87 = load i32, ptr %21, align 4, !tbaa !25
  %88 = mul nsw i32 %87, 4
  %89 = load i32, ptr %22, align 4, !tbaa !25
  %90 = add nsw i32 %89, %88
  store i32 %90, ptr %22, align 4, !tbaa !25
  %91 = load ptr, ptr %6, align 8, !tbaa !15
  %92 = getelementptr inbounds nuw %"class.ncnn::Option", ptr %91, i32 0, i32 1
  %93 = load i32, ptr %92, align 4, !tbaa !48
  call void @__kmpc_push_num_threads(ptr @2, i32 %25, i32 %93)
  call void (ptr, i32, ptr, ...) @__kmpc_fork_call(ptr @2, i32 4, ptr @_ZNK4ncnn9Scale_x8615forward_inplaceERSt6vectorINS_3MatESaIS2_EERKNS_6OptionE.omp_outlined.3, ptr %18, ptr %22, ptr %17, ptr %15)
  call void @llvm.lifetime.end.p0(i64 4, ptr %22) #7
  call void @llvm.lifetime.end.p0(i64 4, ptr %21) #7
  br label %94

94:                                               ; preds = %79, %64
  call void @llvm.lifetime.end.p0(i64 4, ptr %18) #7
  call void @llvm.lifetime.end.p0(i64 8, ptr %17) #7
  br label %95

95:                                               ; preds = %94, %3
  %96 = load i32, ptr %13, align 4, !tbaa !25
  %97 = icmp eq i32 %96, 2
  br i1 %97, label %98, label %106

98:                                               ; preds = %95
  call void @llvm.lifetime.start.p0(i64 4, ptr %23) #7
  %99 = load i32, ptr %9, align 4, !tbaa !25
  %100 = load i32, ptr %14, align 4, !tbaa !25
  %101 = mul nsw i32 %99, %100
  store i32 %101, ptr %23, align 4, !tbaa !25
  %102 = load ptr, ptr %6, align 8, !tbaa !15
  %103 = getelementptr inbounds nuw %"class.ncnn::Option", ptr %102, i32 0, i32 1
  %104 = load i32, ptr %103, align 4, !tbaa !48
  call void @__kmpc_push_num_threads(ptr @2, i32 %25, i32 %104)
  %105 = load ptr, ptr %7, align 8, !tbaa !17
  call void (ptr, i32, ptr, ...) @__kmpc_fork_call(ptr @2, i32 7, ptr @_ZNK4ncnn9Scale_x8615forward_inplaceERSt6vectorINS_3MatESaIS2_EERKNS_6OptionE.omp_outlined.4, ptr %10, ptr %105, ptr %15, ptr %14, ptr %26, ptr %16, ptr %23)
  call void @llvm.lifetime.end.p0(i64 4, ptr %23) #7
  br label %106

106:                                              ; preds = %98, %95
  %107 = load i32, ptr %13, align 4, !tbaa !25
  %108 = icmp eq i32 %107, 3
  br i1 %108, label %112, label %109

109:                                              ; preds = %106
  %110 = load i32, ptr %13, align 4, !tbaa !25
  %111 = icmp eq i32 %110, 4
  br i1 %111, label %112, label %124

112:                                              ; preds = %109, %106
  call void @llvm.lifetime.start.p0(i64 4, ptr %24) #7
  %113 = load i32, ptr %9, align 4, !tbaa !25
  %114 = load i32, ptr %10, align 4, !tbaa !25
  %115 = mul nsw i32 %113, %114
  %116 = load i32, ptr %11, align 4, !tbaa !25
  %117 = mul nsw i32 %115, %116
  %118 = load i32, ptr %14, align 4, !tbaa !25
  %119 = mul nsw i32 %117, %118
  store i32 %119, ptr %24, align 4, !tbaa !25
  %120 = load ptr, ptr %6, align 8, !tbaa !15
  %121 = getelementptr inbounds nuw %"class.ncnn::Option", ptr %120, i32 0, i32 1
  %122 = load i32, ptr %121, align 4, !tbaa !48
  call void @__kmpc_push_num_threads(ptr @2, i32 %25, i32 %122)
  %123 = load ptr, ptr %7, align 8, !tbaa !17
  call void (ptr, i32, ptr, ...) @__kmpc_fork_call(ptr @2, i32 7, ptr @_ZNK4ncnn9Scale_x8615forward_inplaceERSt6vectorINS_3MatESaIS2_EERKNS_6OptionE.omp_outlined.5, ptr %12, ptr %123, ptr %15, ptr %14, ptr %26, ptr %16, ptr %24)
  call void @llvm.lifetime.end.p0(i64 4, ptr %24) #7
  br label %124

124:                                              ; preds = %112, %109
  call void @llvm.lifetime.end.p0(i64 8, ptr %16) #7
  call void @llvm.lifetime.end.p0(i64 8, ptr %15) #7
  call void @llvm.lifetime.end.p0(i64 4, ptr %14) #7
  call void @llvm.lifetime.end.p0(i64 4, ptr %13) #7
  call void @llvm.lifetime.end.p0(i64 4, ptr %12) #7
  call void @llvm.lifetime.end.p0(i64 4, ptr %11) #7
  call void @llvm.lifetime.end.p0(i64 4, ptr %10) #7
  call void @llvm.lifetime.end.p0(i64 4, ptr %9) #7
  call void @llvm.lifetime.end.p0(i64 8, ptr %8) #7
  call void @llvm.lifetime.end.p0(i64 8, ptr %7) #7
  ret i32 0
}