; Function Attrs: mustprogress nounwind uwtable
define hidden noundef i32 @_ZNK4ncnn9Scale_x8615forward_inplaceERSt6vectorINS_3MatESaIS2_EERKNS_6OptionE(ptr noundef nonnull align 8 dereferenceable(360) %0, ptr noundef nonnull readonly align 8 captures(none) dereferenceable(24) %1, ptr noundef nonnull readonly align 8 captures(none) dereferenceable(64) %2) unnamed_addr #2 align 2 {
  %4 = alloca i32, align 4
  %5 = alloca i32, align 4
  %6 = alloca i32, align 4
  %7 = alloca ptr, align 8
  %8 = alloca ptr, align 8
  %9 = alloca ptr, align 8
  %10 = alloca i32, align 4
  %11 = alloca i32, align 4
  %12 = alloca i32, align 4
  %13 = alloca i32, align 4
  %14 = alloca i32, align 4
  %15 = alloca i32, align 4
  %16 = alloca i32, align 4
  %17 = tail call i32 @__kmpc_global_thread_num(ptr nonnull @2)
  %18 = load ptr, ptr %1, align 8, !tbaa !18
  %19 = getelementptr inbounds nuw i8, ptr %18, i64 72
  %20 = getelementptr inbounds nuw i8, ptr %18, i64 44
  %21 = load i32, ptr %20, align 4, !tbaa !21
  call void @llvm.lifetime.start.p0(i64 4, ptr nonnull %4) #6
  %22 = getelementptr inbounds nuw i8, ptr %18, i64 48
  %23 = load i32, ptr %22, align 8, !tbaa !22
  store i32 %23, ptr %4, align 4, !tbaa !23
  %24 = getelementptr inbounds nuw i8, ptr %18, i64 52
  %25 = load i32, ptr %24, align 4, !tbaa !24
  call void @llvm.lifetime.start.p0(i64 4, ptr nonnull %5) #6
  %26 = getelementptr inbounds nuw i8, ptr %18, i64 56
  %27 = load i32, ptr %26, align 8, !tbaa !25
  store i32 %27, ptr %5, align 4, !tbaa !23
  %28 = getelementptr inbounds nuw i8, ptr %18, i64 40
  %29 = load i32, ptr %28, align 8, !tbaa !26
  call void @llvm.lifetime.start.p0(i64 4, ptr nonnull %6) #6
  %30 = getelementptr inbounds nuw i8, ptr %18, i64 24
  %31 = load i32, ptr %30, align 8, !tbaa !27
  store i32 %31, ptr %6, align 4, !tbaa !23
  call void @llvm.lifetime.start.p0(i64 8, ptr nonnull %7) #6
  %32 = load ptr, ptr %19, align 8, !tbaa !16
  store ptr %32, ptr %7, align 8, !tbaa !28
  call void @llvm.lifetime.start.p0(i64 8, ptr nonnull %8) #6
  %33 = getelementptr inbounds nuw i8, ptr %0, i64 288
  %34 = load ptr, ptr %33, align 8, !tbaa !16
  store ptr %34, ptr %8, align 8, !tbaa !28
  switch i32 %29, label %61 [
    i32 1, label %35
    i32 2, label %57
  ]

35:                                               ; preds = %3
  call void @llvm.lifetime.start.p0(i64 8, ptr nonnull %9) #6
  %36 = load ptr, ptr %18, align 8, !tbaa !16
  store ptr %36, ptr %9, align 8, !tbaa !28
  call void @llvm.lifetime.start.p0(i64 4, ptr nonnull %10) #6
  %37 = mul nsw i32 %31, %21
  store i32 %37, ptr %10, align 4, !tbaa !23
  %38 = getelementptr inbounds nuw i8, ptr %0, i64 212
  %39 = load i32, ptr %38, align 4, !tbaa !30
  %.not = icmp eq i32 %39, 0
  %40 = sdiv i32 %37, 4
  %41 = getelementptr inbounds nuw i8, ptr %2, i64 4
  br i1 %.not, label %49, label %42

42:                                               ; preds = %35
  call void @llvm.lifetime.start.p0(i64 4, ptr nonnull %11) #6
  call void @llvm.lifetime.start.p0(i64 4, ptr nonnull %12) #6
  store i32 0, ptr %12, align 4, !tbaa !23
  store i32 %40, ptr %11, align 4, !tbaa !23
  %43 = load i32, ptr %41, align 4, !tbaa !44
  tail call void @__kmpc_push_num_threads(ptr nonnull @2, i32 %17, i32 %43)
  call void (ptr, i32, ptr, ...) @__kmpc_fork_call(ptr nonnull @2, i32 5, ptr nonnull @_ZNK4ncnn9Scale_x8615forward_inplaceERSt6vectorINS_3MatESaIS2_EERKNS_6OptionE.omp_outlined, ptr nonnull %11, ptr nonnull %12, ptr nonnull %9, ptr nonnull %7, ptr nonnull %8)
  %44 = load i32, ptr %11, align 4, !tbaa !23
  %45 = shl nsw i32 %44, 2
  %46 = load i32, ptr %12, align 4, !tbaa !23
  %47 = add nsw i32 %46, %45
  store i32 %47, ptr %12, align 4, !tbaa !23
  %48 = load i32, ptr %41, align 4, !tbaa !44
  call void @__kmpc_push_num_threads(ptr nonnull @2, i32 %17, i32 %48)
  call void (ptr, i32, ptr, ...) @__kmpc_fork_call(ptr nonnull @2, i32 5, ptr nonnull @_ZNK4ncnn9Scale_x8615forward_inplaceERSt6vectorINS_3MatESaIS2_EERKNS_6OptionE.omp_outlined.1, ptr nonnull %10, ptr nonnull %12, ptr nonnull %9, ptr nonnull %7, ptr nonnull %8)
  call void @llvm.lifetime.end.p0(i64 4, ptr nonnull %12) #6
  call void @llvm.lifetime.end.p0(i64 4, ptr nonnull %11) #6
  br label %56

49:                                               ; preds = %35
  call void @llvm.lifetime.start.p0(i64 4, ptr nonnull %13) #6
  call void @llvm.lifetime.start.p0(i64 4, ptr nonnull %14) #6
  store i32 0, ptr %14, align 4, !tbaa !23
  store i32 %40, ptr %13, align 4, !tbaa !23
  %50 = load i32, ptr %41, align 4, !tbaa !44
  tail call void @__kmpc_push_num_threads(ptr nonnull @2, i32 %17, i32 %50)
  call void (ptr, i32, ptr, ...) @__kmpc_fork_call(ptr nonnull @2, i32 4, ptr nonnull @_ZNK4ncnn9Scale_x8615forward_inplaceERSt6vectorINS_3MatESaIS2_EERKNS_6OptionE.omp_outlined.2, ptr nonnull %13, ptr nonnull %14, ptr nonnull %9, ptr nonnull %7)
  %51 = load i32, ptr %13, align 4, !tbaa !23
  %52 = shl nsw i32 %51, 2
  %53 = load i32, ptr %14, align 4, !tbaa !23
  %54 = add nsw i32 %53, %52
  store i32 %54, ptr %14, align 4, !tbaa !23
  %55 = load i32, ptr %41, align 4, !tbaa !44
  call void @__kmpc_push_num_threads(ptr nonnull @2, i32 %17, i32 %55)
  call void (ptr, i32, ptr, ...) @__kmpc_fork_call(ptr nonnull @2, i32 4, ptr nonnull @_ZNK4ncnn9Scale_x8615forward_inplaceERSt6vectorINS_3MatESaIS2_EERKNS_6OptionE.omp_outlined.3, ptr nonnull %10, ptr nonnull %14, ptr nonnull %9, ptr nonnull %7)
  call void @llvm.lifetime.end.p0(i64 4, ptr nonnull %14) #6
  call void @llvm.lifetime.end.p0(i64 4, ptr nonnull %13) #6
  br label %56

56:                                               ; preds = %49, %42
  call void @llvm.lifetime.end.p0(i64 4, ptr nonnull %10) #6
  call void @llvm.lifetime.end.p0(i64 8, ptr nonnull %9) #6
  br label %.thread

57:                                               ; preds = %3
  call void @llvm.lifetime.start.p0(i64 4, ptr nonnull %15) #6
  %58 = mul nsw i32 %31, %21
  store i32 %58, ptr %15, align 4, !tbaa !23
  %59 = getelementptr inbounds nuw i8, ptr %2, i64 4
  %60 = load i32, ptr %59, align 4, !tbaa !44
  tail call void @__kmpc_push_num_threads(ptr nonnull @2, i32 %17, i32 %60)
  call void (ptr, i32, ptr, ...) @__kmpc_fork_call(ptr nonnull @2, i32 7, ptr nonnull @_ZNK4ncnn9Scale_x8615forward_inplaceERSt6vectorINS_3MatESaIS2_EERKNS_6OptionE.omp_outlined.4, ptr nonnull %4, ptr nonnull %18, ptr nonnull %7, ptr nonnull %6, ptr nonnull %0, ptr nonnull %8, ptr nonnull %15)
  call void @llvm.lifetime.end.p0(i64 4, ptr nonnull %15) #6
  br label %.thread

61:                                               ; preds = %3
  %62 = add i32 %29, -3
  %or.cond = icmp ult i32 %62, 2
  br i1 %or.cond, label %63, label %.thread

63:                                               ; preds = %61
  call void @llvm.lifetime.start.p0(i64 4, ptr nonnull %16) #6
  %64 = mul i32 %25, %21
  %65 = mul i32 %64, %23
  %66 = mul nsw i32 %65, %31
  store i32 %66, ptr %16, align 4, !tbaa !23
  %67 = getelementptr inbounds nuw i8, ptr %2, i64 4
  %68 = load i32, ptr %67, align 4, !tbaa !44
  tail call void @__kmpc_push_num_threads(ptr nonnull @2, i32 %17, i32 %68)
  call void (ptr, i32, ptr, ...) @__kmpc_fork_call(ptr nonnull @2, i32 7, ptr nonnull @_ZNK4ncnn9Scale_x8615forward_inplaceERSt6vectorINS_3MatESaIS2_EERKNS_6OptionE.omp_outlined.5, ptr nonnull %5, ptr nonnull %18, ptr nonnull %7, ptr nonnull %6, ptr nonnull %0, ptr nonnull %8, ptr nonnull %16)
  call void @llvm.lifetime.end.p0(i64 4, ptr nonnull %16) #6
  br label %.thread

.thread:                                          ; preds = %57, %56, %61, %63
  call void @llvm.lifetime.end.p0(i64 8, ptr nonnull %8) #6
  call void @llvm.lifetime.end.p0(i64 8, ptr nonnull %7) #6
  call void @llvm.lifetime.end.p0(i64 4, ptr nonnull %6) #6
  call void @llvm.lifetime.end.p0(i64 4, ptr nonnull %5) #6
  call void @llvm.lifetime.end.p0(i64 4, ptr nonnull %4) #6
  ret i32 0
}